; Function Attrs: mustprogress uwtable
define void @_ZN3nix6SourceclESt17basic_string_viewIcSt11char_traitsIcEE(ptr noundef nonnull align 8 dereferenceable(8) %0, i64 %1, ptr %2) local_unnamed_addr #2 align 2 {
  %.not8.i = icmp eq i64 %1, 0
  br i1 %.not8.i, label %_ZN3nix6SourceclEPcm.exit, label %.lr.ph.i

.lr.ph.i:                                         ; preds = %3, %.lr.ph.i
  %.010.i = phi ptr [ %8, %.lr.ph.i ], [ %2, %3 ]
  %.079.i = phi i64 [ %9, %.lr.ph.i ], [ %1, %3 ]
  %4 = load ptr, ptr %0, align 8
  %5 = getelementptr inbounds i8, ptr %4, i64 16
  %6 = load ptr, ptr %5, align 8
  %7 = tail call noundef i64 %6(ptr noundef nonnull align 8 dereferenceable(8) %0, ptr noundef %.010.i, i64 noundef %.079.i)
  %8 = getelementptr inbounds i8, ptr %.010.i, i64 %7
  %9 = sub i64 %.079.i, %7
  %.not.i = icmp eq i64 %9, 0
  br i1 %.not.i, label %_ZN3nix6SourceclEPcm.exit, label %.lr.ph.i, !llvm.loop !4

_ZN3nix6SourceclEPcm.exit:                        ; preds = %.lr.ph.i, %3
  ret void
}